target datalayout = "e-m:e-p270:32:32-p271:32:32-p272:64:64-i64:64-i128:128-f80:128-n8:16:32:64-S128"
target triple = "x86_64-pc-linux-gnu"

%struct.H5C_class_t = type { i32, ptr, i32, i32, ptr, ptr, ptr, ptr, ptr, ptr, ptr, ptr, ptr, ptr }
%struct.H5FA_dbk_page_t = type { %struct.H5C_cache_entry_t, ptr, ptr, ptr, i64, i64, i64 }
%struct.H5C_cache_entry_t = type { ptr, i64, i64, ptr, i8, ptr, i8, i8, i8, i8, i32, i8, i8, i8, i8, i8, i32, ptr, i32, i32, i32, i32, i32, i8, i8, ptr, ptr, ptr, ptr, ptr, ptr, i8, i32, i8, i64, ptr, i64, i64, i32, i8, i32, i32, i8, ptr, ptr, ptr }
%struct.H5FA_hdr_t = type { %struct.H5C_cache_entry_t, %struct.H5FA_create_t, i64, %struct.H5FA_stat_t, i64, i64, i64, ptr, i64, i8, i64, i64, ptr, i8, ptr, ptr }
%struct.H5FA_create_t = type { ptr, i8, i8, i64 }
%struct.H5FA_stat_t = type { i64, i64, i64 }
%struct.H5FA_dblk_page_cache_ud_t = type { ptr, i64, i64 }

@.str.1 = private unnamed_addr constant [106 x i8] c"generated/home/dtcxzyw/WorkSpace/Projects/compilers/llvm-opt-benchmark/bench/hdf5/hdf5/src/H5FAdblkpage.c\00", align 1
@H5E_FARRAY_g = external global i64, align 8
@H5E_CANTSET_g = external global i64, align 8
@H5AC_FARRAY_DBLK_PAGE = external constant [1 x %struct.H5C_class_t], align 16
@.str.8 = private unnamed_addr constant [56 x i8] c"unable to add fixed array entry as child of array proxy\00", align 1
@__func__.H5FA__dblk_page_protect = private unnamed_addr constant [24 x i8] c"H5FA__dblk_page_protect\00", align 1
@H5E_CANTPROTECT_g = external global i64, align 8
@.str.10 = private unnamed_addr constant [62 x i8] c"unable to protect fixed array data block page, address = %llu\00", align 1
@H5E_CANTUNPROTECT_g = external global i64, align 8
@.str.11 = private unnamed_addr constant [64 x i8] c"unable to unprotect fixed array data block page, address = %llu\00", align 1

; Function Attrs: nounwind uwtable
define ptr @H5FA__dblk_page_protect(ptr noundef %0, i64 noundef %1, i64 noundef %2, i32 noundef %3) #0 {
  %5 = alloca ptr, align 8
  %6 = alloca i64, align 8
  %7 = alloca i64, align 8
  %8 = alloca i32, align 4
  %9 = alloca ptr, align 8
  %10 = alloca %struct.H5FA_dblk_page_cache_ud_t, align 8
  %11 = alloca ptr, align 8
  %12 = alloca i8, align 1
  store ptr %0, ptr %5, align 8
  store i64 %1, ptr %6, align 8
  store i64 %2, ptr %7, align 8
  store i32 %3, ptr %8, align 4
  store ptr null, ptr %9, align 8
  store ptr null, ptr %11, align 8
  store i8 0, ptr %12, align 1
  %13 = load ptr, ptr %5, align 8
  %14 = getelementptr inbounds %struct.H5FA_dblk_page_cache_ud_t, ptr %10, i32 0, i32 0
  store ptr %13, ptr %14, align 8
  %15 = load i64, ptr %7, align 8
  %16 = getelementptr inbounds %struct.H5FA_dblk_page_cache_ud_t, ptr %10, i32 0, i32 1
  store i64 %15, ptr %16, align 8
  %17 = load i64, ptr %6, align 8
  %18 = getelementptr inbounds %struct.H5FA_dblk_page_cache_ud_t, ptr %10, i32 0, i32 2
  store i64 %17, ptr %18, align 8
  %19 = load ptr, ptr %5, align 8
  %20 = getelementptr inbounds %struct.H5FA_hdr_t, ptr %19, i32 0, i32 7
  %21 = load ptr, ptr %20, align 8
  %22 = load i64, ptr %6, align 8
  %23 = load i32, ptr %8, align 4
  %24 = call ptr @H5AC_protect(ptr noundef %21, ptr noundef @H5AC_FARRAY_DBLK_PAGE, i64 noundef %22, ptr noundef %10, i32 noundef %23)
  store ptr %24, ptr %9, align 8
  %25 = icmp eq ptr null, %24
  br i1 %25, label %26, label %42

26:                                               ; preds = %4
  br label %27

27:                                               ; preds = %26
  br label %28

28:                                               ; preds = %27
  br label %29

29:                                               ; preds = %28
  %30 = load i64, ptr @H5E_FARRAY_g, align 8
  %31 = load i64, ptr @H5E_CANTPROTECT_g, align 8
  %32 = load i64, ptr %6, align 8
  %33 = call i32 (ptr, ptr, i32, i64, i64, ptr, ...) @H5E_printf_stack(ptr noundef @.str.1, ptr noundef @__func__.H5FA__dblk_page_protect, i32 noundef 236, i64 noundef %30, i64 noundef %31, ptr noundef @.str.10, i64 noundef %32)
  br label %34

34:                                               ; preds = %29
  store i8 1, ptr %12, align 1
  %35 = load i8, ptr %12, align 1
  %36 = trunc i8 %35 to i1
  %37 = zext i1 %36 to i8
  store i8 %37, ptr %12, align 1
  br label %38

38:                                               ; preds = %34
  br label %39

39:                                               ; preds = %38
  store ptr null, ptr %11, align 8
  br label %85

40:                                               ; No predecessors!
  br label %41

41:                                               ; preds = %40
  br label %42

42:                                               ; preds = %41, %4
  %43 = load ptr, ptr %5, align 8
  %44 = getelementptr inbounds %struct.H5FA_hdr_t, ptr %43, i32 0, i32 14
  %45 = load ptr, ptr %44, align 8
  %46 = icmp ne ptr %45, null
  br i1 %46, label %47, label %83

47:                                               ; preds = %42
  %48 = load ptr, ptr %9, align 8
  %49 = getelementptr inbounds %struct.H5FA_dbk_page_t, ptr %48, i32 0, i32 3
  %50 = load ptr, ptr %49, align 8
  %51 = icmp eq ptr null, %50
  br i1 %51, label %52, label %83

52:                                               ; preds = %47
  %53 = load ptr, ptr %5, align 8
  %54 = getelementptr inbounds %struct.H5FA_hdr_t, ptr %53, i32 0, i32 14
  %55 = load ptr, ptr %54, align 8
  %56 = load ptr, ptr %5, align 8
  %57 = getelementptr inbounds %struct.H5FA_hdr_t, ptr %56, i32 0, i32 7
  %58 = load ptr, ptr %57, align 8
  %59 = load ptr, ptr %9, align 8
  %60 = call i32 @H5AC_proxy_entry_add_child(ptr noundef %55, ptr noundef %58, ptr noundef %59)
  %61 = icmp slt i32 %60, 0
  br i1 %61, label %62, label %77

62:                                               ; preds = %52
  br label %63

63:                                               ; preds = %62
  br label %64

64:                                               ; preds = %63
  br label %65

65:                                               ; preds = %64
  %66 = load i64, ptr @H5E_FARRAY_g, align 8
  %67 = load i64, ptr @H5E_CANTSET_g, align 8
  %68 = call i32 (ptr, ptr, i32, i64, i64, ptr, ...) @H5E_printf_stack(ptr noundef @.str.1, ptr noundef @__func__.H5FA__dblk_page_protect, i32 noundef 243, i64 noundef %66, i64 noundef %67, ptr noundef @.str.8)
  br label %69

69:                                               ; preds = %65
  store i8 1, ptr %12, align 1
  %70 = load i8, ptr %12, align 1
  %71 = trunc i8 %70 to i1
  %72 = zext i1 %71 to i8
  store i8 %72, ptr %12, align 1
  br label %73

73:                                               ; preds = %69
  br label %74

74:                                               ; preds = %73
  store ptr null, ptr %11, align 8
  br label %85

75:                                               ; No predecessors!
  br label %76

76:                                               ; preds = %75
  br label %77

77:                                               ; preds = %76, %52
  %78 = load ptr, ptr %5, align 8
  %79 = getelementptr inbounds %struct.H5FA_hdr_t, ptr %78, i32 0, i32 14
  %80 = load ptr, ptr %79, align 8
  %81 = load ptr, ptr %9, align 8
  %82 = getelementptr inbounds %struct.H5FA_dbk_page_t, ptr %81, i32 0, i32 3
  store ptr %80, ptr %82, align 8
  br label %83

83:                                               ; preds = %77, %47, %42
  %84 = load ptr, ptr %9, align 8
  store ptr %84, ptr %11, align 8
  br label %85

85:                                               ; preds = %83, %74, %39
  %86 = load ptr, ptr %11, align 8
  %87 = icmp ne ptr %86, null
  br i1 %87, label %118, label %88

88:                                               ; preds = %85
  %89 = load ptr, ptr %9, align 8
  %90 = icmp ne ptr %89, null
  br i1 %90, label %91, label %117

91:                                               ; preds = %88
  %92 = load ptr, ptr %5, align 8
  %93 = getelementptr inbounds %struct.H5FA_hdr_t, ptr %92, i32 0, i32 7
  %94 = load ptr, ptr %93, align 8
  %95 = load ptr, ptr %9, align 8
  %96 = getelementptr inbounds %struct.H5FA_dbk_page_t, ptr %95, i32 0, i32 4
  %97 = load i64, ptr %96, align 8
  %98 = load ptr, ptr %9, align 8
  %99 = call i32 @H5AC_unprotect(ptr noundef %94, ptr noundef @H5AC_FARRAY_DBLK_PAGE, i64 noundef %97, ptr noundef %98, i32 noundef 0)
  %100 = icmp slt i32 %99, 0
  br i1 %100, label %101, label %117

101:                                              ; preds = %91
  br label %102

102:                                              ; preds = %101
  br label %103

103:                                              ; preds = %102
  br label %104

104:                                              ; preds = %103
  %105 = load i64, ptr @H5E_FARRAY_g, align 8
  %106 = load i64, ptr @H5E_CANTUNPROTECT_g, align 8
  %107 = load ptr, ptr %9, align 8
  %108 = getelementptr inbounds %struct.H5FA_dbk_page_t, ptr %107, i32 0, i32 4
  %109 = load i64, ptr %108, align 8
  %110 = call i32 (ptr, ptr, i32, i64, i64, ptr, ...) @H5E_printf_stack(ptr noundef @.str.1, ptr noundef @__func__.H5FA__dblk_page_protect, i32 noundef 259, i64 noundef %105, i64 noundef %106, ptr noundef @.str.11, i64 noundef %109)
  br label %111

111:                                              ; preds = %104
  store i8 1, ptr %12, align 1
  %112 = load i8, ptr %12, align 1
  %113 = trunc i8 %112 to i1
  %114 = zext i1 %113 to i8
  store i8 %114, ptr %12, align 1
  br label %115

115:                                              ; preds = %111
  store ptr null, ptr %11, align 8
  br label %116

116:                                              ; preds = %115
  br label %117

117:                                              ; preds = %116, %91, %88
  br label %118

118:                                              ; preds = %117, %85
  %119 = load ptr, ptr %11, align 8
  ret ptr %119
}